target datalayout = "e-m:e-p270:32:32-p271:32:32-p272:64:64-i64:64-i128:128-f80:128-n8:16:32:64-S128"
target triple = "x86_64-pc-linux-gnu"

%struct._object = type { %union.anon.26, ptr }
%union.anon.26 = type { i64 }
%struct.PyDictObject = type { %struct._object, i64, i64, ptr, ptr }
%struct.anon.27 = type { i32, i32 }

; Function Attrs: alwaysinline nounwind uwtable
define internal i32 @_Py_IsImmortal(ptr noundef %0) #4 {
  %2 = alloca ptr, align 8
  store ptr %0, ptr %2, align 8, !tbaa !32
  %3 = load ptr, ptr %2, align 8, !tbaa !32
  %4 = getelementptr inbounds nuw %struct._object, ptr %3, i32 0, i32 0
  %5 = getelementptr inbounds nuw %struct.anon.27, ptr %4, i32 0, i32 0
  %6 = load i32, ptr %5, align 8, !tbaa !11
  %7 = icmp slt i32 %6, 0
  %8 = zext i1 %7 to i32
  ret i32 %8
}

; Function Attrs: alwaysinline nounwind uwtable
define internal void @Py_DECREF(ptr noundef %0) #4 {
  %2 = alloca ptr, align 8
  store ptr %0, ptr %2, align 8, !tbaa !32
  %3 = load ptr, ptr %2, align 8, !tbaa !32
  %4 = call i32 @_Py_IsImmortal(ptr noundef %3)
  %5 = icmp ne i32 %4, 0
  br i1 %5, label %6, label %7

6:                                                ; preds = %1
  br label %16

7:                                                ; preds = %1
  %8 = load ptr, ptr %2, align 8, !tbaa !32
  %9 = getelementptr inbounds nuw %struct._object, ptr %8, i32 0, i32 0
  %10 = getelementptr inbounds nuw %struct.anon.27, ptr %9, i32 0, i32 0
  %11 = load i32, ptr %10, align 8, !tbaa !11
  %12 = add i32 %11, -1
  store i32 %12, ptr %10, align 8, !tbaa !11
  %13 = icmp eq i32 %12, 0
  br i1 %13, label %14, label %16

14:                                               ; preds = %7
  %15 = load ptr, ptr %2, align 8, !tbaa !32
  call void @_Py_Dealloc(ptr noundef %15)
  br label %16

16:                                               ; preds = %6, %14, %7
  ret void
}

; Function Attrs: inlinehint nounwind uwtable
define internal i64 @PyDict_GET_SIZE(ptr noundef %0) #3 {
  %2 = alloca ptr, align 8
  %3 = alloca ptr, align 8
  store ptr %0, ptr %2, align 8, !tbaa !32
  call void @llvm.lifetime.start.p0(i64 8, ptr %3) #8
  %4 = load ptr, ptr %2, align 8, !tbaa !32
  store ptr %4, ptr %3, align 8, !tbaa !42
  %5 = load ptr, ptr %3, align 8, !tbaa !42
  %6 = getelementptr inbounds nuw %struct.PyDictObject, ptr %5, i32 0, i32 1
  %7 = load i64, ptr %6, align 8, !tbaa !43
  call void @llvm.lifetime.end.p0(i64 8, ptr %3) #8
  ret i64 %7
}

; Function Attrs: nounwind uwtable
define hidden i64 @_PyCompile_DictAddObj(ptr noundef %0, ptr noundef %1) #0 {
  %3 = alloca i64, align 8
  %4 = alloca ptr, align 8
  %5 = alloca ptr, align 8
  %6 = alloca ptr, align 8
  %7 = alloca i64, align 8
  %8 = alloca i32, align 4
  store ptr %0, ptr %4, align 8, !tbaa !32
  store ptr %1, ptr %5, align 8, !tbaa !32
  call void @llvm.lifetime.start.p0(i64 8, ptr %6) #8
  call void @llvm.lifetime.start.p0(i64 8, ptr %7) #8
  %9 = load ptr, ptr %4, align 8, !tbaa !32
  %10 = load ptr, ptr %5, align 8, !tbaa !32
  %11 = call i32 @PyDict_GetItemRef(ptr noundef %9, ptr noundef %10, ptr noundef %6)
  %12 = icmp slt i32 %11, 0
  br i1 %12, label %13, label %14

13:                                               ; preds = %2
  store i64 -1, ptr %3, align 8
  store i32 1, ptr %8, align 4
  br label %40

14:                                               ; preds = %2
  %15 = load ptr, ptr %6, align 8, !tbaa !32
  %16 = icmp ne ptr %15, null
  br i1 %16, label %34, label %17

17:                                               ; preds = %14
  %18 = load ptr, ptr %4, align 8, !tbaa !32
  %19 = call i64 @PyDict_GET_SIZE(ptr noundef %18)
  store i64 %19, ptr %7, align 8, !tbaa !24
  %20 = load i64, ptr %7, align 8, !tbaa !24
  %21 = call ptr @PyLong_FromSsize_t(i64 noundef %20)
  store ptr %21, ptr %6, align 8, !tbaa !32
  %22 = load ptr, ptr %6, align 8, !tbaa !32
  %23 = icmp ne ptr %22, null
  br i1 %23, label %25, label %24

24:                                               ; preds = %17
  store i64 -1, ptr %3, align 8
  store i32 1, ptr %8, align 4
  br label %40

25:                                               ; preds = %17
  %26 = load ptr, ptr %4, align 8, !tbaa !32
  %27 = load ptr, ptr %5, align 8, !tbaa !32
  %28 = load ptr, ptr %6, align 8, !tbaa !32
  %29 = call i32 @PyDict_SetItem(ptr noundef %26, ptr noundef %27, ptr noundef %28)
  %30 = icmp slt i32 %29, 0
  br i1 %30, label %31, label %33

31:                                               ; preds = %25
  %32 = load ptr, ptr %6, align 8, !tbaa !32
  call void @Py_DECREF(ptr noundef %32)
  store i64 -1, ptr %3, align 8
  store i32 1, ptr %8, align 4
  br label %40

33:                                               ; preds = %25
  br label %37

34:                                               ; preds = %14
  %35 = load ptr, ptr %6, align 8, !tbaa !32
  %36 = call i64 @PyLong_AsLong(ptr noundef %35)
  store i64 %36, ptr %7, align 8, !tbaa !24
  br label %37

37:                                               ; preds = %34, %33
  %38 = load ptr, ptr %6, align 8, !tbaa !32
  call void @Py_DECREF(ptr noundef %38)
  %39 = load i64, ptr %7, align 8, !tbaa !24
  store i64 %39, ptr %3, align 8
  store i32 1, ptr %8, align 4
  br label %40

40:                                               ; preds = %37, %31, %24, %13
  call void @llvm.lifetime.end.p0(i64 8, ptr %7) #8
  call void @llvm.lifetime.end.p0(i64 8, ptr %6) #8
  %41 = load i64, ptr %3, align 8
  ret i64 %41
}