; Function Attrs: nounwind uwtable
define hidden i64 @_PyCompile_DictAddObj(ptr noundef %0, ptr noundef %1) local_unnamed_addr #0 {
  %3 = alloca ptr, align 8
  call void @llvm.lifetime.start.p0(i64 8, ptr nonnull %3) #11
  %4 = call i32 @PyDict_GetItemRef(ptr noundef %0, ptr noundef %1, ptr noundef nonnull %3) #11
  %5 = icmp slt i32 %4, 0
  br i1 %5, label %Py_DECREF.exit, label %6

6:                                                ; preds = %2
  %7 = load ptr, ptr %3, align 8, !tbaa !28
  %.not = icmp eq ptr %7, null
  br i1 %.not, label %8, label %20

8:                                                ; preds = %6
  %9 = getelementptr i8, ptr %0, i64 16
  %.val = load i64, ptr %9, align 8, !tbaa !37
  %10 = call ptr @PyLong_FromSsize_t(i64 noundef %.val) #11
  store ptr %10, ptr %3, align 8, !tbaa !28
  %.not10 = icmp eq ptr %10, null
  br i1 %.not10, label %Py_DECREF.exit, label %11

11:                                               ; preds = %8
  %12 = call i32 @PyDict_SetItem(ptr noundef nonnull %0, ptr noundef %1, ptr noundef nonnull %10) #11
  %13 = icmp slt i32 %12, 0
  br i1 %13, label %14, label %22

14:                                               ; preds = %11
  %15 = load ptr, ptr %3, align 8, !tbaa !28
  %16 = load i32, ptr %15, align 8, !tbaa !4
  %.not.i = icmp sgt i32 %16, -1
  br i1 %.not.i, label %17, label %Py_DECREF.exit

17:                                               ; preds = %14
  %18 = add nsw i32 %16, -1
  store i32 %18, ptr %15, align 8, !tbaa !4
  %19 = icmp eq i32 %18, 0
  br i1 %19, label %Py_DECREF.exit.sink.split, label %Py_DECREF.exit

20:                                               ; preds = %6
  %21 = call i64 @PyLong_AsLong(ptr noundef nonnull %7) #11
  br label %22

22:                                               ; preds = %11, %20
  %.0 = phi i64 [ %21, %20 ], [ %.val, %11 ]
  %23 = load ptr, ptr %3, align 8, !tbaa !28
  %24 = load i32, ptr %23, align 8, !tbaa !4
  %.not.i11 = icmp sgt i32 %24, -1
  br i1 %.not.i11, label %25, label %Py_DECREF.exit

25:                                               ; preds = %22
  %26 = add nsw i32 %24, -1
  store i32 %26, ptr %23, align 8, !tbaa !4
  %27 = icmp eq i32 %26, 0
  br i1 %27, label %Py_DECREF.exit.sink.split, label %Py_DECREF.exit

Py_DECREF.exit.sink.split:                        ; preds = %25, %17
  %.sink = phi ptr [ %15, %17 ], [ %23, %25 ]
  %.07.ph = phi i64 [ -1, %17 ], [ %.0, %25 ]
  call void @_Py_Dealloc(ptr noundef nonnull %.sink) #11
  br label %Py_DECREF.exit

Py_DECREF.exit:                                   ; preds = %Py_DECREF.exit.sink.split, %25, %22, %17, %14, %8, %2
  %.07 = phi i64 [ -1, %2 ], [ -1, %8 ], [ -1, %14 ], [ -1, %17 ], [ %.0, %22 ], [ %.0, %25 ], [ %.07.ph, %Py_DECREF.exit.sink.split ]
  call void @llvm.lifetime.end.p0(i64 8, ptr nonnull %3) #11
  ret i64 %.07
}